target datalayout = "e-m:e-p270:32:32-p271:32:32-p272:64:64-i64:64-i128:128-f80:128-n8:16:32:64-S128"
target triple = "x86_64-pc-linux-gnu"

%class.ExtcapArgument = type { %class.QObject, %class.QList, ptr, ptr, i32, %class.QString }
%class.QObject = type { ptr, %class.QScopedPointer }
%class.QScopedPointer = type { ptr }
%class.QList = type { %struct.QArrayDataPointer }
%struct.QArrayDataPointer = type { ptr, ptr, i64 }
%class.QString = type { %struct.QArrayDataPointer.0 }
%struct.QArrayDataPointer.0 = type { ptr, ptr, i64 }
%class.ExtArgSelector = type { %class.ExtcapArgument, ptr }

; Function Attrs: mustprogress null_pointer_is_valid sspstrong uwtable
define noundef ptr @_ZN18ExtArgEditSelector12createEditorEP7QWidget(ptr noundef align 8 dereferenceable_or_null(96) %0, ptr noundef %1) unnamed_addr #0 align 2 {
  %3 = alloca ptr, align 8
  %4 = alloca ptr, align 8
  %5 = alloca ptr, align 8
  store ptr %0, ptr %3, align 8
  store ptr %1, ptr %4, align 8
  %6 = load ptr, ptr %3, align 8
  call void @llvm.lifetime.start.p0(i64 8, ptr %5) #23
  %7 = load ptr, ptr %4, align 8
  %8 = call noundef ptr @_ZN14ExtArgSelector12createEditorEP7QWidget(ptr noundef align 8 dereferenceable_or_null(96) %6, ptr noundef %7)
  store ptr %8, ptr %5, align 8
  %9 = getelementptr inbounds nuw %class.ExtArgSelector, ptr %6, i32 0, i32 1
  %10 = load ptr, ptr %9, align 8
  call void @_ZN9QComboBox11setEditableEb(ptr noundef align 8 dereferenceable_or_null(40) %10, i1 noundef zeroext true)
  %11 = getelementptr inbounds nuw %class.ExtArgSelector, ptr %6, i32 0, i32 1
  %12 = load ptr, ptr %11, align 8
  call void @_ZN9QComboBox15setInsertPolicyENS_12InsertPolicyE(ptr noundef align 8 dereferenceable_or_null(40) %12, i32 noundef 0)
  %13 = load ptr, ptr %5, align 8
  call void @llvm.lifetime.end.p0(i64 8, ptr %5) #23
  ret ptr %13
}