; Function Attrs: mustprogress null_pointer_is_valid sspstrong uwtable
define noundef ptr @_ZN18ExtArgEditSelector12createEditorEP7QWidget(ptr noundef align 8 dereferenceable_or_null(96) %0, ptr noundef %1) unnamed_addr #0 align 2 {
  %3 = tail call noundef ptr @_ZN14ExtArgSelector12createEditorEP7QWidget(ptr noundef align 8 dereferenceable_or_null(96) %0, ptr noundef %1)
  %4 = getelementptr inbounds nuw i8, ptr %0, i64 88
  %5 = load ptr, ptr %4, align 8
  tail call void @_ZN9QComboBox11setEditableEb(ptr noundef align 8 dereferenceable_or_null(40) %5, i1 noundef zeroext true)
  %6 = load ptr, ptr %4, align 8
  tail call void @_ZN9QComboBox15setInsertPolicyENS_12InsertPolicyE(ptr noundef align 8 dereferenceable_or_null(40) %6, i32 noundef 0)
  ret ptr %3
}